#include <math.h>
#include <stdio.h>
#include <stdlib.h>
#include <string.h>
#include <iostream>
using namespace std;

int main()
{
	int n,k,i,num[1000],g=0;	//??????????n?k???????
	cin>>n>>k;
	for(i=0;i<n;cin>>num[i++]);	//?????????n??????????
	for(i=0;i<n-1;i++)
		for(int m=i+1;m<n;m++)
			if(num[i]+num[m]==k)g=1;
	cout<<(g==1?"yes":"no")<<endl;
	return 0;
}
